target datalayout = "e-m:e-p270:32:32-p271:32:32-p272:64:64-i64:64-i128:128-f80:128-n8:16:32:64-S128"
target triple = "x86_64-pc-linux-gnu"

%struct.anon = type { i32, ptr }

@.str = private unnamed_addr constant [27 x i8] c"Invalid platform ID 0x%08X\00", align 1
@supportedPlatforms = internal constant [2 x { i32, [4 x i8], ptr }] [{ i32, [4 x i8], ptr } { i32 393219, [4 x i8] zeroinitializer, ptr @_glfwConnectWayland }, { i32, [4 x i8], ptr } { i32 393220, [4 x i8] zeroinitializer, ptr @_glfwConnectX11 }], align 16

; Function Attrs: nounwind uwtable
define i32 @glfwPlatformSupported(i32 noundef %0) #0 {
  %2 = alloca i32, align 4
  %3 = alloca i32, align 4
  %4 = alloca i64, align 8
  %5 = alloca i64, align 8
  %6 = alloca i32, align 4
  store i32 %0, ptr %3, align 4, !tbaa !3
  call void @llvm.lifetime.start.p0(i64 8, ptr %4) #5
  store i64 2, ptr %4, align 8, !tbaa !10
  call void @llvm.lifetime.start.p0(i64 8, ptr %5) #5
  %7 = load i32, ptr %3, align 4, !tbaa !3
  %8 = icmp ne i32 %7, 393217
  br i1 %8, label %9, label %23

9:                                                ; preds = %1
  %10 = load i32, ptr %3, align 4, !tbaa !3
  %11 = icmp ne i32 %10, 393218
  br i1 %11, label %12, label %23

12:                                               ; preds = %9
  %13 = load i32, ptr %3, align 4, !tbaa !3
  %14 = icmp ne i32 %13, 393219
  br i1 %14, label %15, label %23

15:                                               ; preds = %12
  %16 = load i32, ptr %3, align 4, !tbaa !3
  %17 = icmp ne i32 %16, 393220
  br i1 %17, label %18, label %23

18:                                               ; preds = %15
  %19 = load i32, ptr %3, align 4, !tbaa !3
  %20 = icmp ne i32 %19, 393221
  br i1 %20, label %21, label %23

21:                                               ; preds = %18
  %22 = load i32, ptr %3, align 4, !tbaa !3
  call void (i32, ptr, ...) @_glfwInputError(i32 noundef 65539, ptr noundef @.str, i32 noundef %22)
  store i32 0, ptr %2, align 4
  store i32 1, ptr %6, align 4
  br label %44

23:                                               ; preds = %18, %15, %12, %9, %1
  %24 = load i32, ptr %3, align 4, !tbaa !3
  %25 = icmp eq i32 %24, 393221
  br i1 %25, label %26, label %27

26:                                               ; preds = %23
  store i32 1, ptr %2, align 4
  store i32 1, ptr %6, align 4
  br label %44

27:                                               ; preds = %23
  store i64 0, ptr %5, align 8, !tbaa !10
  br label %28

28:                                               ; preds = %40, %27
  %29 = load i64, ptr %5, align 8, !tbaa !10
  %30 = icmp ult i64 %29, 2
  br i1 %30, label %31, label %43

31:                                               ; preds = %28
  %32 = load i32, ptr %3, align 4, !tbaa !3
  %33 = load i64, ptr %5, align 8, !tbaa !10
  %34 = getelementptr inbounds nuw [2 x %struct.anon], ptr @supportedPlatforms, i64 0, i64 %33
  %35 = getelementptr inbounds nuw %struct.anon, ptr %34, i32 0, i32 0
  %36 = load i32, ptr %35, align 16, !tbaa !16
  %37 = icmp eq i32 %32, %36
  br i1 %37, label %38, label %39

38:                                               ; preds = %31
  store i32 1, ptr %2, align 4
  store i32 1, ptr %6, align 4
  br label %44

39:                                               ; preds = %31
  br label %40

40:                                               ; preds = %39
  %41 = load i64, ptr %5, align 8, !tbaa !10
  %42 = add i64 %41, 1
  store i64 %42, ptr %5, align 8, !tbaa !10
  br label %28

43:                                               ; preds = %28
  store i32 0, ptr %2, align 4
  store i32 1, ptr %6, align 4
  br label %44

44:                                               ; preds = %43, %38, %26, %21
  call void @llvm.lifetime.end.p0(i64 8, ptr %5) #5
  call void @llvm.lifetime.end.p0(i64 8, ptr %4) #5
  %45 = load i32, ptr %2, align 4
  ret i32 %45
}