; Function Attrs: nounwind uwtable
define range(i32 0, 2) i32 @glfwPlatformSupported(i32 noundef %0) local_unnamed_addr #0 {
  %2 = add i32 %0, -393222
  %or.cond7 = icmp ult i32 %2, -5
  br i1 %or.cond7, label %3, label %4

3:                                                ; preds = %1
  tail call void (i32, ptr, ...) @_glfwInputError(i32 noundef 65539, ptr noundef nonnull @.str, i32 noundef %0) #5
  br label %.loopexit

4:                                                ; preds = %1
  %5 = icmp eq i32 %0, 393221
  br i1 %5, label %.loopexit, label %.preheader

.preheader:                                       ; preds = %4, %.preheader
  %.not = phi i1 [ true, %.preheader ], [ false, %4 ]
  %.021 = phi i64 [ 1, %.preheader ], [ 0, %4 ]
  %6 = getelementptr inbounds nuw [2 x %struct.anon], ptr @supportedPlatforms, i64 0, i64 %.021
  %7 = load i32, ptr %6, align 16, !tbaa !9
  %8 = icmp eq i32 %0, %7
  %brmerge = or i1 %8, %.not
  br i1 %brmerge, label %.loopexit.loopexit, label %.preheader

.loopexit.loopexit:                               ; preds = %.preheader
  %.mux = zext i1 %8 to i32
  br label %.loopexit

.loopexit:                                        ; preds = %.loopexit.loopexit, %4, %3
  %.019 = phi i32 [ 0, %3 ], [ 1, %4 ], [ %.mux, %.loopexit.loopexit ]
  ret i32 %.019
}